target datalayout = "e-m:e-p270:32:32-p271:32:32-p272:64:64-i64:64-i128:128-f80:128-n8:16:32:64-S128"
target triple = "x86_64-pc-linux-gnu"

%struct.AVFilterContext = type { ptr, ptr, ptr, ptr, ptr, i32, ptr, ptr, i32, ptr, ptr, i32, i32, ptr, ptr, ptr, ptr, i32, ptr, i32, i32 }
%struct.FadeContext = type { ptr, i32, i32, i32, i32, i32, i32, i32, i32, i32, i32, i32, i8, i8, [4 x i8], i32, i32, i64, i64, i64, i64, i32, [4 x i8], i32, ptr, ptr, ptr }
%struct.AVChannelLayout = type { i32, i32, %union.anon.1, ptr }
%union.anon.1 = type { i64 }
%struct.AVRational = type { i32, i32 }
%struct.AVFrame = type { [8 x ptr], [8 x i32], ptr, i32, i32, i32, i32, i32, %struct.AVRational, i64, i64, %struct.AVRational, i32, ptr, i32, i32, [8 x ptr], ptr, i32, ptr, i32, i32, i32, i32, i32, i32, i32, i64, ptr, i32, ptr, ptr, i64, i64, i64, i64, ptr, %struct.AVChannelLayout, i64 }

; Function Attrs: nounwind uwtable
define internal i32 @filter_slice_alpha(ptr noundef %0, ptr noundef %1, i32 noundef %2, i32 noundef %3) #1 {
  %5 = alloca ptr, align 8
  %6 = alloca ptr, align 8
  %7 = alloca i32, align 4
  %8 = alloca i32, align 4
  %9 = alloca ptr, align 8
  %10 = alloca ptr, align 8
  %11 = alloca i32, align 4
  %12 = alloca i32, align 4
  %13 = alloca i32, align 4
  %14 = alloca i32, align 4
  %15 = alloca i32, align 4
  %16 = alloca ptr, align 8
  %17 = alloca i32, align 4
  store ptr %0, ptr %5, align 8, !tbaa !4
  store ptr %1, ptr %6, align 8, !tbaa !37
  store i32 %2, ptr %7, align 4, !tbaa !88
  store i32 %3, ptr %8, align 4, !tbaa !88
  call void @llvm.lifetime.start.p0(i64 8, ptr %9) #11
  %18 = load ptr, ptr %5, align 8, !tbaa !4
  %19 = getelementptr inbounds nuw %struct.AVFilterContext, ptr %18, i32 0, i32 9
  %20 = load ptr, ptr %19, align 8, !tbaa !9
  store ptr %20, ptr %9, align 8, !tbaa !22
  call void @llvm.lifetime.start.p0(i64 8, ptr %10) #11
  %21 = load ptr, ptr %6, align 8, !tbaa !37
  store ptr %21, ptr %10, align 8, !tbaa !40
  call void @llvm.lifetime.start.p0(i64 4, ptr %11) #11
  %22 = load ptr, ptr %9, align 8, !tbaa !22
  %23 = getelementptr inbounds nuw %struct.FadeContext, ptr %22, i32 0, i32 13
  %24 = load i8, ptr %23, align 1, !tbaa !83
  %25 = zext i8 %24 to i32
  %26 = icmp ne i32 %25, 0
  %27 = select i1 %26, i32 0, i32 3
  store i32 %27, ptr %11, align 4, !tbaa !88
  call void @llvm.lifetime.start.p0(i64 4, ptr %12) #11
  %28 = load ptr, ptr %10, align 8, !tbaa !40
  %29 = getelementptr inbounds nuw %struct.AVFrame, ptr %28, i32 0, i32 4
  %30 = load i32, ptr %29, align 4, !tbaa !63
  %31 = load i32, ptr %7, align 4, !tbaa !88
  %32 = mul nsw i32 %30, %31
  %33 = load i32, ptr %8, align 4, !tbaa !88
  %34 = sdiv i32 %32, %33
  store i32 %34, ptr %12, align 4, !tbaa !88
  call void @llvm.lifetime.start.p0(i64 4, ptr %13) #11
  %35 = load ptr, ptr %10, align 8, !tbaa !40
  %36 = getelementptr inbounds nuw %struct.AVFrame, ptr %35, i32 0, i32 4
  %37 = load i32, ptr %36, align 4, !tbaa !63
  %38 = load i32, ptr %7, align 4, !tbaa !88
  %39 = add nsw i32 %38, 1
  %40 = mul nsw i32 %37, %39
  %41 = load i32, ptr %8, align 4, !tbaa !88
  %42 = sdiv i32 %40, %41
  store i32 %42, ptr %13, align 4, !tbaa !88
  call void @llvm.lifetime.start.p0(i64 4, ptr %14) #11
  call void @llvm.lifetime.start.p0(i64 4, ptr %15) #11
  %43 = load i32, ptr %12, align 4, !tbaa !88
  store i32 %43, ptr %14, align 4, !tbaa !88
  br label %44

44:                                               ; preds = %116, %4
  %45 = load i32, ptr %14, align 4, !tbaa !88
  %46 = load i32, ptr %13, align 4, !tbaa !88
  %47 = icmp slt i32 %45, %46
  br i1 %47, label %48, label %119

48:                                               ; preds = %44
  call void @llvm.lifetime.start.p0(i64 8, ptr %16) #11
  %49 = load ptr, ptr %10, align 8, !tbaa !40
  %50 = getelementptr inbounds nuw %struct.AVFrame, ptr %49, i32 0, i32 0
  %51 = load i32, ptr %11, align 4, !tbaa !88
  %52 = sext i32 %51 to i64
  %53 = getelementptr inbounds [8 x ptr], ptr %50, i64 0, i64 %52
  %54 = load ptr, ptr %53, align 8, !tbaa !66
  %55 = load i32, ptr %14, align 4, !tbaa !88
  %56 = load ptr, ptr %10, align 8, !tbaa !40
  %57 = getelementptr inbounds nuw %struct.AVFrame, ptr %56, i32 0, i32 1
  %58 = load i32, ptr %11, align 4, !tbaa !88
  %59 = sext i32 %58 to i64
  %60 = getelementptr inbounds [8 x i32], ptr %57, i64 0, i64 %59
  %61 = load i32, ptr %60, align 4, !tbaa !88
  %62 = mul nsw i32 %55, %61
  %63 = sext i32 %62 to i64
  %64 = getelementptr inbounds i8, ptr %54, i64 %63
  %65 = load ptr, ptr %9, align 8, !tbaa !22
  %66 = getelementptr inbounds nuw %struct.FadeContext, ptr %65, i32 0, i32 13
  %67 = load i8, ptr %66, align 1, !tbaa !83
  %68 = zext i8 %67 to i32
  %69 = load ptr, ptr %9, align 8, !tbaa !22
  %70 = getelementptr inbounds nuw %struct.FadeContext, ptr %69, i32 0, i32 14
  %71 = getelementptr inbounds [4 x i8], ptr %70, i64 0, i64 3
  %72 = load i8, ptr %71, align 1, !tbaa !90
  %73 = zext i8 %72 to i32
  %74 = mul nsw i32 %68, %73
  %75 = sext i32 %74 to i64
  %76 = getelementptr inbounds i8, ptr %64, i64 %75
  store ptr %76, ptr %16, align 8, !tbaa !66
  call void @llvm.lifetime.start.p0(i64 4, ptr %17) #11
  %77 = load ptr, ptr %9, align 8, !tbaa !22
  %78 = getelementptr inbounds nuw %struct.FadeContext, ptr %77, i32 0, i32 13
  %79 = load i8, ptr %78, align 1, !tbaa !83
  %80 = zext i8 %79 to i32
  %81 = icmp ne i32 %80, 0
  %82 = select i1 %81, i32 4, i32 1
  store i32 %82, ptr %17, align 4, !tbaa !88
  store i32 0, ptr %15, align 4, !tbaa !88
  br label %83

83:                                               ; preds = %112, %48
  %84 = load i32, ptr %15, align 4, !tbaa !88
  %85 = load ptr, ptr %10, align 8, !tbaa !40
  %86 = getelementptr inbounds nuw %struct.AVFrame, ptr %85, i32 0, i32 3
  %87 = load i32, ptr %86, align 8, !tbaa !89
  %88 = icmp slt i32 %84, %87
  br i1 %88, label %89, label %115

89:                                               ; preds = %83
  %90 = load ptr, ptr %16, align 8, !tbaa !66
  %91 = load i8, ptr %90, align 1, !tbaa !90
  %92 = zext i8 %91 to i32
  %93 = load ptr, ptr %9, align 8, !tbaa !22
  %94 = getelementptr inbounds nuw %struct.FadeContext, ptr %93, i32 0, i32 10
  %95 = load i32, ptr %94, align 4, !tbaa !86
  %96 = sub i32 %92, %95
  %97 = load ptr, ptr %9, align 8, !tbaa !22
  %98 = getelementptr inbounds nuw %struct.FadeContext, ptr %97, i32 0, i32 2
  %99 = load i32, ptr %98, align 4, !tbaa !52
  %100 = mul i32 %96, %99
  %101 = load ptr, ptr %9, align 8, !tbaa !22
  %102 = getelementptr inbounds nuw %struct.FadeContext, ptr %101, i32 0, i32 11
  %103 = load i32, ptr %102, align 8, !tbaa !87
  %104 = add i32 %100, %103
  %105 = lshr i32 %104, 16
  %106 = trunc i32 %105 to i8
  %107 = load ptr, ptr %16, align 8, !tbaa !66
  store i8 %106, ptr %107, align 1, !tbaa !90
  %108 = load i32, ptr %17, align 4, !tbaa !88
  %109 = load ptr, ptr %16, align 8, !tbaa !66
  %110 = sext i32 %108 to i64
  %111 = getelementptr inbounds i8, ptr %109, i64 %110
  store ptr %111, ptr %16, align 8, !tbaa !66
  br label %112

112:                                              ; preds = %89
  %113 = load i32, ptr %15, align 4, !tbaa !88
  %114 = add nsw i32 %113, 1
  store i32 %114, ptr %15, align 4, !tbaa !88
  br label %83, !llvm.loop !112

115:                                              ; preds = %83
  call void @llvm.lifetime.end.p0(i64 4, ptr %17) #11
  call void @llvm.lifetime.end.p0(i64 8, ptr %16) #11
  br label %116

116:                                              ; preds = %115
  %117 = load i32, ptr %14, align 4, !tbaa !88
  %118 = add nsw i32 %117, 1
  store i32 %118, ptr %14, align 4, !tbaa !88
  br label %44, !llvm.loop !113

119:                                              ; preds = %44
  call void @llvm.lifetime.end.p0(i64 4, ptr %15) #11
  call void @llvm.lifetime.end.p0(i64 4, ptr %14) #11
  call void @llvm.lifetime.end.p0(i64 4, ptr %13) #11
  call void @llvm.lifetime.end.p0(i64 4, ptr %12) #11
  call void @llvm.lifetime.end.p0(i64 4, ptr %11) #11
  call void @llvm.lifetime.end.p0(i64 8, ptr %10) #11
  call void @llvm.lifetime.end.p0(i64 8, ptr %9) #11
  ret i32 0
}