; Function Attrs: nofree norecurse nosync nounwind memory(readwrite, inaccessiblemem: none) uwtable
define internal noundef i32 @filter_slice_alpha(ptr noundef readonly captures(none) %0, ptr noundef readonly captures(none) %1, i32 noundef %2, i32 noundef %3) #6 {
  %5 = getelementptr inbounds nuw i8, ptr %0, i64 72
  %6 = load ptr, ptr %5, align 8, !tbaa !4
  %7 = getelementptr inbounds nuw i8, ptr %6, i64 53
  %8 = getelementptr inbounds nuw i8, ptr %1, i64 108
  %9 = load i32, ptr %8, align 4, !tbaa !53
  %10 = mul nsw i32 %9, %2
  %11 = sdiv i32 %10, %3
  %12 = add nsw i32 %2, 1
  %13 = mul nsw i32 %9, %12
  %14 = sdiv i32 %13, %3
  %15 = icmp slt i32 %11, %14
  br i1 %15, label %.lr.ph37, label %._crit_edge38

.lr.ph37:                                         ; preds = %4
  %16 = load i8, ptr %7, align 1, !tbaa !71
  %.not = icmp eq i8 %16, 0
  %17 = select i1 %.not, i64 3, i64 0
  %18 = getelementptr inbounds nuw [8 x ptr], ptr %1, i64 0, i64 %17
  %19 = getelementptr inbounds nuw i8, ptr %1, i64 64
  %20 = getelementptr inbounds nuw [8 x i32], ptr %19, i64 0, i64 %17
  %21 = getelementptr inbounds nuw i8, ptr %6, i64 57
  %22 = getelementptr inbounds nuw i8, ptr %1, i64 104
  %23 = getelementptr inbounds nuw i8, ptr %6, i64 44
  %24 = getelementptr inbounds nuw i8, ptr %6, i64 12
  %25 = getelementptr inbounds nuw i8, ptr %6, i64 48
  %26 = load i32, ptr %22, align 8, !tbaa !74
  %27 = icmp sgt i32 %26, 0
  br i1 %27, label %.lr.ph37.split, label %._crit_edge38

.lr.ph37.split:                                   ; preds = %.lr.ph37, %._crit_edge
  %28 = phi i32 [ %57, %._crit_edge ], [ %26, %.lr.ph37 ]
  %.035 = phi i32 [ %58, %._crit_edge ], [ %11, %.lr.ph37 ]
  %29 = icmp sgt i32 %28, 0
  br i1 %29, label %.lr.ph, label %._crit_edge

.lr.ph:                                           ; preds = %.lr.ph37.split
  %30 = load i8, ptr %7, align 1, !tbaa !71
  %.not32 = icmp eq i8 %30, 0
  %31 = load ptr, ptr %18, align 8, !tbaa !54
  %32 = load i32, ptr %20, align 4, !tbaa !75
  %33 = mul nsw i32 %32, %.035
  %34 = sext i32 %33 to i64
  %35 = getelementptr inbounds i8, ptr %31, i64 %34
  %36 = load i8, ptr %21, align 1, !tbaa !76
  %37 = zext i8 %36 to i64
  %38 = zext i8 %30 to i64
  %39 = mul nuw nsw i64 %37, %38
  %40 = getelementptr inbounds nuw i8, ptr %35, i64 %39
  %41 = select i1 %.not32, i64 1, i64 4
  br label %42

42:                                               ; preds = %.lr.ph, %42
  %.03034 = phi ptr [ %40, %.lr.ph ], [ %53, %42 ]
  %.03133 = phi i32 [ 0, %.lr.ph ], [ %54, %42 ]
  %43 = load i8, ptr %.03034, align 1, !tbaa !76
  %44 = zext i8 %43 to i32
  %45 = load i32, ptr %23, align 4, !tbaa !72
  %46 = sub i32 %44, %45
  %47 = load i32, ptr %24, align 4, !tbaa !40
  %48 = mul i32 %46, %47
  %49 = load i32, ptr %25, align 8, !tbaa !73
  %50 = add i32 %48, %49
  %51 = lshr i32 %50, 16
  %52 = trunc i32 %51 to i8
  store i8 %52, ptr %.03034, align 1, !tbaa !76
  %53 = getelementptr inbounds nuw i8, ptr %.03034, i64 %41
  %54 = add nuw nsw i32 %.03133, 1
  %55 = load i32, ptr %22, align 8, !tbaa !74
  %56 = icmp slt i32 %54, %55
  br i1 %56, label %42, label %._crit_edge, !llvm.loop !100

._crit_edge:                                      ; preds = %42, %.lr.ph37.split
  %57 = phi i32 [ %28, %.lr.ph37.split ], [ %55, %42 ]
  %58 = add nsw i32 %.035, 1
  %exitcond.not = icmp eq i32 %58, %14
  br i1 %exitcond.not, label %._crit_edge38, label %.lr.ph37.split, !llvm.loop !101

._crit_edge38:                                    ; preds = %._crit_edge, %.lr.ph37, %4
  ret i32 0
}